; Function Attrs: mustprogress nounwind uwtable
define hidden noundef ptr @_ZNK17TenuredGeneration11block_startEPKv(ptr nocapture noundef nonnull readonly align 8 dereferenceable(248) %0, ptr noundef %1) local_unnamed_addr #0 align 2 {
  %3 = getelementptr inbounds i8, ptr %0, i64 176
  %4 = load ptr, ptr %3, align 8
  %5 = tail call noundef ptr @_ZNK22SerialBlockOffsetTable30block_start_reaching_into_cardEPKv(ptr noundef nonnull align 8 dereferenceable(136) %4, ptr noundef %1) #8
  br label %6

6:                                                ; preds = %_ZN7oopDesc4sizeEv.exit, %2
  %.0 = phi ptr [ %5, %2 ], [ %62, %_ZN7oopDesc4sizeEv.exit ]
  %7 = load i8, ptr @UseCompressedClassPointers, align 1
  %8 = trunc i8 %7 to i1
  %9 = getelementptr inbounds i8, ptr %.0, i64 8
  br i1 %8, label %10, label %20

10:                                               ; preds = %6
  %11 = load i32, ptr %9, align 8
  %12 = load ptr, ptr @_ZN23CompressedKlassPointers5_baseE, align 8
  %13 = load i32, ptr @_ZN23CompressedKlassPointers6_shiftE, align 4
  %14 = ptrtoint ptr %12 to i64
  %15 = zext i32 %11 to i64
  %16 = zext nneg i32 %13 to i64
  %17 = shl i64 %15, %16
  %18 = add i64 %17, %14
  %19 = inttoptr i64 %18 to ptr
  br label %_ZNK7oopDesc5klassEv.exit.i

20:                                               ; preds = %6
  %21 = load ptr, ptr %9, align 8
  br label %_ZNK7oopDesc5klassEv.exit.i

_ZNK7oopDesc5klassEv.exit.i:                      ; preds = %20, %10
  %.0.i.i = phi ptr [ %19, %10 ], [ %21, %20 ]
  %22 = getelementptr inbounds i8, ptr %.0.i.i, i64 8
  %23 = load i32, ptr %22, align 8
  %24 = icmp sgt i32 %23, 0
  br i1 %24, label %25, label %35

25:                                               ; preds = %_ZNK7oopDesc5klassEv.exit.i
  %26 = and i32 %23, 1
  %.not.i.i = icmp eq i32 %26, 0
  br i1 %.not.i.i, label %27, label %30

27:                                               ; preds = %25
  %28 = lshr i32 %23, 3
  %29 = zext nneg i32 %28 to i64
  br label %_ZN7oopDesc4sizeEv.exit

30:                                               ; preds = %25
  %31 = load ptr, ptr %.0.i.i, align 8
  %32 = getelementptr inbounds i8, ptr %31, i64 256
  %33 = load ptr, ptr %32, align 8
  %34 = tail call noundef i64 %33(ptr noundef nonnull align 8 dereferenceable(196) %.0.i.i, ptr noundef nonnull %.0) #8
  br label %_ZN7oopDesc4sizeEv.exit

35:                                               ; preds = %_ZNK7oopDesc5klassEv.exit.i
  %36 = icmp slt i32 %23, 0
  br i1 %36, label %37, label %57

37:                                               ; preds = %35
  %38 = select i1 %8, i64 12, i64 16
  %39 = getelementptr inbounds i8, ptr %.0, i64 %38
  %40 = load i32, ptr %39, align 4
  %41 = sext i32 %40 to i64
  %42 = and i32 %23, 63
  %43 = zext nneg i32 %42 to i64
  %44 = shl i64 %41, %43
  %45 = lshr i32 %23, 16
  %46 = and i32 %45, 255
  %47 = zext nneg i32 %46 to i64
  %48 = add i64 %44, %47
  %49 = load i32, ptr @MinObjAlignmentInBytes, align 4
  %50 = add nsw i32 %49, -1
  %51 = sext i32 %50 to i64
  %52 = add i64 %48, %51
  %53 = sub i32 0, %49
  %54 = sext i32 %53 to i64
  %55 = and i64 %52, %54
  %56 = lshr i64 %55, 3
  br label %_ZN7oopDesc4sizeEv.exit

57:                                               ; preds = %35
  %58 = load ptr, ptr %.0.i.i, align 8
  %59 = getelementptr inbounds i8, ptr %58, i64 256
  %60 = load ptr, ptr %59, align 8
  %61 = tail call noundef i64 %60(ptr noundef nonnull align 8 dereferenceable(196) %.0.i.i, ptr noundef nonnull %.0) #8
  br label %_ZN7oopDesc4sizeEv.exit

_ZN7oopDesc4sizeEv.exit:                          ; preds = %27, %30, %37, %57
  %.0.i1.i = phi i64 [ %34, %30 ], [ %29, %27 ], [ %56, %37 ], [ %61, %57 ]
  %62 = getelementptr inbounds ptr, ptr %.0, i64 %.0.i1.i
  %63 = icmp ugt ptr %62, %1
  br i1 %63, label %64, label %6, !llvm.loop !6

64:                                               ; preds = %_ZN7oopDesc4sizeEv.exit
  ret ptr %.0
}